; Function Attrs: mustprogress uwtable
define void @_ZN32pxrInternal_v0_24__pxrReserved__24Sdf_TextFileFormatParser28_DictionaryInitShapedFactoryERKNS_17Sdf_ParserHelpers5ValueEPNS_21Sdf_TextParserContextE(ptr noundef nonnull align 8 dereferenceable(72) %0, ptr noundef %1) local_unnamed_addr #0 personality ptr @__gxx_personality_v0 {
  %3 = alloca %"class.std::__cxx11::basic_string", align 8
  %4 = alloca %"class.std::__cxx11::basic_string", align 8
  %5 = tail call noundef nonnull align 8 dereferenceable(32) ptr @_ZNK32pxrInternal_v0_24__pxrReserved__17Sdf_ParserHelpers5Value3GetINSt7__cxx1112basic_stringIcSt11char_traitsIcESaIcEEEEENS0_8_GetImplIT_vE10ResultTypeEv(ptr noundef nonnull align 8 dereferenceable(72) %0)
  call void @_ZNSt7__cxx1112basic_stringIcSt11char_traitsIcESaIcEEC1ERKS4_(ptr noundef nonnull align 8 dereferenceable(32) %3, ptr noundef nonnull align 8 dereferenceable(32) %5)
  %6 = invoke noundef nonnull align 8 dereferenceable(32) ptr @_ZNSt7__cxx1112basic_stringIcSt11char_traitsIcESaIcEE6appendEPKc(ptr noundef nonnull align 8 dereferenceable(32) %3, ptr noundef nonnull @.str.27)
          to label %_ZStplIcSt11char_traitsIcESaIcEENSt7__cxx1112basic_stringIT_T0_T1_EERKS8_PKS5_.exit unwind label %7

common.resume:                                    ; preds = %16, %18, %7
  %common.resume.op = phi { ptr, i32 } [ %8, %7 ], [ %19, %18 ], [ %17, %16 ]
  call void @_ZNSt7__cxx1112basic_stringIcSt11char_traitsIcESaIcEED1Ev(ptr noundef nonnull align 8 dereferenceable(32) %3) #23
  resume { ptr, i32 } %common.resume.op

7:                                                ; preds = %2
  %8 = landingpad { ptr, i32 }
          cleanup
  br label %common.resume

_ZStplIcSt11char_traitsIcESaIcEENSt7__cxx1112basic_stringIT_T0_T1_EERKS8_PKS5_.exit: ; preds = %2
  %9 = getelementptr inbounds nuw i8, ptr %1, i64 512
  %10 = invoke noundef zeroext i1 @_ZN32pxrInternal_v0_24__pxrReserved__22Sdf_ParserValueContext12SetupFactoryERKNSt7__cxx1112basic_stringIcSt11char_traitsIcESaIcEEE(ptr noundef nonnull align 8 dereferenceable(328) %9, ptr noundef nonnull align 8 dereferenceable(32) %3)
          to label %_ZN32pxrInternal_v0_24__pxrReserved__24Sdf_TextFileFormatParser11_SetupValueERKNSt7__cxx1112basic_stringIcSt11char_traitsIcESaIcEEEPNS_21Sdf_TextParserContextE.exit unwind label %16

_ZN32pxrInternal_v0_24__pxrReserved__24Sdf_TextFileFormatParser11_SetupValueERKNSt7__cxx1112basic_stringIcSt11char_traitsIcESaIcEEEPNS_21Sdf_TextParserContextE.exit: ; preds = %_ZStplIcSt11char_traitsIcESaIcEENSt7__cxx1112basic_stringIT_T0_T1_EERKS8_PKS5_.exit
  br i1 %10, label %20, label %11

11:                                               ; preds = %_ZN32pxrInternal_v0_24__pxrReserved__24Sdf_TextFileFormatParser11_SetupValueERKNSt7__cxx1112basic_stringIcSt11char_traitsIcESaIcEEEPNS_21Sdf_TextParserContextE.exit
  %12 = call noundef ptr @_ZNKSt7__cxx1112basic_stringIcSt11char_traitsIcESaIcEE5c_strEv(ptr noundef nonnull align 8 dereferenceable(32) %3) #23
  invoke void (ptr, ptr, ...) @_ZN32pxrInternal_v0_24__pxrReserved__14TfStringPrintfB5cxx11EPKcz(ptr dead_on_unwind nonnull writable sret(%"class.std::__cxx11::basic_string") align 8 %4, ptr noundef nonnull @.str.26, ptr noundef %12)
          to label %13 unwind label %16

13:                                               ; preds = %11
  %14 = call noundef ptr @_ZNKSt7__cxx1112basic_stringIcSt11char_traitsIcESaIcEE5c_strEv(ptr noundef nonnull align 8 dereferenceable(32) %4) #23
  invoke void @_ZN32pxrInternal_v0_24__pxrReserved__24Sdf_TextFileFormatParser11_RaiseErrorEPNS_21Sdf_TextParserContextEPKc(ptr noundef %1, ptr noundef %14)
          to label %15 unwind label %18

15:                                               ; preds = %13
  call void @_ZNSt7__cxx1112basic_stringIcSt11char_traitsIcESaIcEED1Ev(ptr noundef nonnull align 8 dereferenceable(32) %4) #23
  br label %20

16:                                               ; preds = %_ZStplIcSt11char_traitsIcESaIcEENSt7__cxx1112basic_stringIT_T0_T1_EERKS8_PKS5_.exit, %11
  %17 = landingpad { ptr, i32 }
          cleanup
  br label %common.resume

18:                                               ; preds = %13
  %19 = landingpad { ptr, i32 }
          cleanup
  call void @_ZNSt7__cxx1112basic_stringIcSt11char_traitsIcESaIcEED1Ev(ptr noundef nonnull align 8 dereferenceable(32) %4) #23
  br label %common.resume

20:                                               ; preds = %15, %_ZN32pxrInternal_v0_24__pxrReserved__24Sdf_TextFileFormatParser11_SetupValueERKNSt7__cxx1112basic_stringIcSt11char_traitsIcESaIcEEEPNS_21Sdf_TextParserContextE.exit
  call void @_ZNSt7__cxx1112basic_stringIcSt11char_traitsIcESaIcEED1Ev(ptr noundef nonnull align 8 dereferenceable(32) %3) #23
  ret void
}